target datalayout = "e-m:e-p270:32:32-p271:32:32-p272:64:64-i64:64-i128:128-f80:128-n8:16:32:64-S128"
target triple = "x86_64-pc-linux-gnu"

%struct.b2WorldId = type { i16, i16 }
%struct.b2JointId = type { i32, i16, i16 }
%struct.b2BodyId = type { i32, i16, i16 }
%struct.b2Profile = type { float, float, float, float, float, float, float, float, float, float, float, float, float, float, float, float, float, float, float, float, float, float }
%class.Sample = type { ptr, ptr, ptr, ptr, i32, i32, %struct.b2BodyId, i32, %struct.b2WorldId, %struct.b2JointId, i32, i32, %struct.b2Profile, %struct.b2Profile }

; Function Attrs: mustprogress uwtable
define internal void @_ZL10FinishTaskPvS_(ptr noundef %0, ptr noundef %1) #5 {
  %3 = alloca ptr, align 8
  %4 = alloca ptr, align 8
  %5 = alloca ptr, align 8
  %6 = alloca ptr, align 8
  store ptr %0, ptr %3, align 8, !tbaa !67
  store ptr %1, ptr %4, align 8, !tbaa !67
  %7 = load ptr, ptr %3, align 8, !tbaa !67
  %8 = icmp ne ptr %7, null
  br i1 %8, label %9, label %16

9:                                                ; preds = %2
  call void @llvm.lifetime.start.p0(i64 8, ptr %5) #19
  %10 = load ptr, ptr %3, align 8, !tbaa !67
  store ptr %10, ptr %5, align 8, !tbaa !45
  call void @llvm.lifetime.start.p0(i64 8, ptr %6) #19
  %11 = load ptr, ptr %4, align 8, !tbaa !67
  store ptr %11, ptr %6, align 8, !tbaa !15
  %12 = load ptr, ptr %6, align 8, !tbaa !15
  %13 = getelementptr inbounds nuw %class.Sample, ptr %12, i32 0, i32 2
  %14 = load ptr, ptr %13, align 8, !tbaa !21
  %15 = load ptr, ptr %5, align 8, !tbaa !45
  call void @_ZN4enki13TaskScheduler11WaitforTaskEPKNS_12ICompletableENS_12TaskPriorityE(ptr noundef nonnull align 8 dereferenceable(220) %14, ptr noundef %15, i32 noundef 2)
  call void @llvm.lifetime.end.p0(i64 8, ptr %6) #19
  call void @llvm.lifetime.end.p0(i64 8, ptr %5) #19
  br label %16

16:                                               ; preds = %9, %2
  ret void
}