; Function Attrs: mustprogress uwtable
define internal void @_ZL10FinishTaskPvS_(ptr noundef %0, ptr noundef readonly captures(none) %1) #9 {
  %.not = icmp eq ptr %0, null
  br i1 %.not, label %6, label %3

3:                                                ; preds = %2
  %4 = getelementptr inbounds nuw i8, ptr %1, i64 16
  %5 = load ptr, ptr %4, align 8, !tbaa !21
  tail call void @_ZN4enki13TaskScheduler11WaitforTaskEPKNS_12ICompletableENS_12TaskPriorityE(ptr noundef nonnull align 8 dereferenceable(220) %5, ptr noundef nonnull %0, i32 noundef 2)
  br label %6

6:                                                ; preds = %3, %2
  ret void
}